target datalayout = "e-m:e-p270:32:32-p271:32:32-p272:64:64-i64:64-i128:128-f80:128-n8:16:32:64-S128"
target triple = "x86_64-pc-linux-gnu"

%struct._packet_info = type { ptr, ptr, i32, i32, %struct.nstime_t, %struct.nstime_t, %struct.nstime_t, i8, ptr, ptr, ptr, ptr, %struct._address, %struct._address, %struct._address, %struct._address, %struct._address, %struct._address, i32, ptr, i8, [3 x i8], %struct.anon, i32, i32, i32, i32, ptr, i8, ptr, ptr, i16, i16, i32, i32, i16, i32, i32, ptr, ptr, ptr, i8, i8, i16, i16, i16, i32, i16, i16, ptr, ptr, ptr, ptr, ptr, i32, i32 }
%struct.nstime_t = type { i64, i32 }
%struct._address = type { i32, i32, ptr, ptr }
%struct.anon = type { i8, [3 x i8] }

@hf_mip6_mnid_subtype = internal global i32 0, align 4
@hf_mip6_mnid_identifier = internal global i32 0, align 4
@ett_mip6_opt_mnid = internal global i32 0, align 4
@proto_mip6_option_mnid = internal global i32 0, align 4
@.str.755 = private unnamed_addr constant [5 x i8] c": %s\00", align 1

; Function Attrs: null_pointer_is_valid sspstrong uwtable
define internal i32 @dissect_mip6_opt_mnid(ptr noundef %0, ptr noundef %1, ptr noundef %2, ptr noundef %3) #0 {
  %5 = alloca ptr, align 8
  %6 = alloca ptr, align 8
  %7 = alloca ptr, align 8
  %8 = alloca ptr, align 8
  %9 = alloca ptr, align 8
  %10 = alloca ptr, align 8
  %11 = alloca i32, align 4
  %12 = alloca i32, align 4
  %13 = alloca ptr, align 8
  store ptr %0, ptr %5, align 8
  store ptr %1, ptr %6, align 8
  store ptr %2, ptr %7, align 8
  store ptr %3, ptr %8, align 8
  call void @llvm.lifetime.start.p0(i64 8, ptr %9) #6
  call void @llvm.lifetime.start.p0(i64 8, ptr %10) #6
  call void @llvm.lifetime.start.p0(i64 4, ptr %11) #6
  %14 = load ptr, ptr %5, align 8
  %15 = call i32 @tvb_reported_length(ptr noundef %14)
  %16 = sub i32 %15, 2
  store i32 %16, ptr %11, align 4
  call void @llvm.lifetime.start.p0(i64 4, ptr %12) #6
  store i32 2, ptr %12, align 4
  call void @llvm.lifetime.start.p0(i64 8, ptr %13) #6
  %17 = load ptr, ptr %7, align 8
  %18 = load ptr, ptr %6, align 8
  %19 = load ptr, ptr %5, align 8
  %20 = load i32, ptr @proto_mip6_option_mnid, align 4
  %21 = load i32, ptr @ett_mip6_opt_mnid, align 4
  %22 = load i32, ptr %11, align 4
  %23 = call ptr @mip6_var_option_header(ptr noundef %17, ptr noundef %18, ptr noundef %19, i32 noundef %20, i32 noundef %21, ptr noundef %10, i32 noundef %22, i32 noundef 2)
  store ptr %23, ptr %9, align 8
  %24 = load ptr, ptr %9, align 8
  %25 = load i32, ptr @hf_mip6_mnid_subtype, align 4
  %26 = load ptr, ptr %5, align 8
  %27 = load i32, ptr %12, align 4
  %28 = call ptr @proto_tree_add_item(ptr noundef %24, i32 noundef %25, ptr noundef %26, i32 noundef %27, i32 noundef 1, i32 noundef 0)
  %29 = load i32, ptr %12, align 4
  %30 = add i32 %29, 1
  store i32 %30, ptr %12, align 4
  %31 = load i32, ptr %11, align 4
  %32 = load i32, ptr %12, align 4
  %33 = sub i32 %31, %32
  %34 = icmp sgt i32 %33, 0
  br i1 %34, label %35, label %48

35:                                               ; preds = %4
  %36 = load ptr, ptr %9, align 8
  %37 = load i32, ptr @hf_mip6_mnid_identifier, align 4
  %38 = load ptr, ptr %5, align 8
  %39 = load i32, ptr %12, align 4
  %40 = load i32, ptr %11, align 4
  %41 = sub i32 %40, 1
  %42 = load ptr, ptr %6, align 8
  %43 = getelementptr inbounds nuw %struct._packet_info, ptr %42, i32 0, i32 51
  %44 = load ptr, ptr %43, align 8
  %45 = call ptr @proto_tree_add_item_ret_string(ptr noundef %36, i32 noundef %37, ptr noundef %38, i32 noundef %39, i32 noundef %41, i32 noundef 2, ptr noundef %44, ptr noundef %13)
  %46 = load ptr, ptr %10, align 8
  %47 = load ptr, ptr %13, align 8
  call void (ptr, ptr, ...) @proto_item_append_text(ptr noundef %46, ptr noundef @.str.755, ptr noundef %47)
  br label %48

48:                                               ; preds = %35, %4
  %49 = load ptr, ptr %5, align 8
  %50 = call i32 @tvb_captured_length(ptr noundef %49)
  call void @llvm.lifetime.end.p0(i64 8, ptr %13) #6
  call void @llvm.lifetime.end.p0(i64 4, ptr %12) #6
  call void @llvm.lifetime.end.p0(i64 4, ptr %11) #6
  call void @llvm.lifetime.end.p0(i64 8, ptr %10) #6
  call void @llvm.lifetime.end.p0(i64 8, ptr %9) #6
  ret i32 %50
}