; Function Attrs: null_pointer_is_valid sspstrong uwtable
define internal i32 @dissect_mip6_opt_mnid(ptr noundef %0, ptr noundef %1, ptr noundef %2, ptr readnone captures(none) %3) #0 {
  %5 = alloca ptr, align 8
  %6 = alloca ptr, align 8
  call void @llvm.lifetime.start.p0(i64 8, ptr nonnull %5) #5
  %7 = tail call i32 @tvb_reported_length(ptr noundef %0)
  %8 = add i32 %7, -2
  call void @llvm.lifetime.start.p0(i64 8, ptr nonnull %6) #5
  %9 = load i32, ptr @proto_mip6_option_mnid, align 4
  %10 = load i32, ptr @ett_mip6_opt_mnid, align 4
  %11 = call fastcc ptr @mip6_var_option_header(ptr noundef %2, ptr noundef %1, ptr noundef %0, i32 noundef %9, i32 noundef %10, ptr noundef nonnull %5, i32 noundef %8, i32 noundef 2)
  %12 = load i32, ptr @hf_mip6_mnid_subtype, align 4
  %13 = tail call ptr @proto_tree_add_item(ptr noundef %11, i32 noundef %12, ptr noundef %0, i32 noundef 2, i32 noundef 1, i32 noundef 0)
  %14 = add i32 %7, -5
  %15 = icmp sgt i32 %14, 0
  br i1 %15, label %16, label %24

16:                                               ; preds = %4
  %17 = load i32, ptr @hf_mip6_mnid_identifier, align 4
  %18 = add i32 %7, -3
  %19 = getelementptr inbounds nuw i8, ptr %1, i64 408
  %20 = load ptr, ptr %19, align 8
  %21 = call ptr @proto_tree_add_item_ret_string(ptr noundef %11, i32 noundef %17, ptr noundef %0, i32 noundef 3, i32 noundef %18, i32 noundef 2, ptr noundef %20, ptr noundef nonnull %6)
  %22 = load ptr, ptr %5, align 8
  %23 = load ptr, ptr %6, align 8
  call void (ptr, ptr, ...) @proto_item_append_text(ptr noundef %22, ptr noundef nonnull @.str.755, ptr noundef %23)
  br label %24

24:                                               ; preds = %16, %4
  %25 = call i32 @tvb_captured_length(ptr noundef %0)
  call void @llvm.lifetime.end.p0(i64 8, ptr nonnull %6) #5
  call void @llvm.lifetime.end.p0(i64 8, ptr nonnull %5) #5
  ret i32 %25
}